target datalayout = "e-m:e-p270:32:32-p271:32:32-p272:64:64-i64:64-i128:128-f80:128-n8:16:32:64-S128"
target triple = "x86_64-pc-linux-gnu"

%struct.T1_Builder_FuncsRec_ = type { ptr, ptr, ptr, ptr, ptr, ptr, ptr, ptr }
%struct.FT_BBox_ = type { i64, i64, i64, i64 }
%struct.T1_BuilderRec_ = type { ptr, ptr, ptr, ptr, ptr, ptr, i64, i64, %struct.FT_Vector_, %struct.FT_Vector_, %struct.FT_BBox_, i32, i8, i8, i8, ptr, ptr, %struct.T1_Builder_FuncsRec_ }
%struct.FT_Vector_ = type { i64, i64 }
%struct.FT_Outline_ = type { i16, i16, ptr, ptr, ptr, i32 }
%struct.FT_GlyphLoaderRec_ = type { ptr, i32, i32, i32, i8, %struct.FT_GlyphLoadRec_, %struct.FT_GlyphLoadRec_, ptr }
%struct.FT_GlyphLoadRec_ = type { %struct.FT_Outline_, ptr, ptr, i32, ptr }

; Function Attrs: nounwind uwtable
define internal void @t1_builder_add_point(ptr noundef %0, i64 noundef %1, i64 noundef %2, i8 noundef zeroext %3) #0 {
  %5 = alloca ptr, align 8
  %6 = alloca i64, align 8
  %7 = alloca i64, align 8
  %8 = alloca i8, align 1
  %9 = alloca ptr, align 8
  %10 = alloca ptr, align 8
  %11 = alloca ptr, align 8
  store ptr %0, ptr %5, align 8
  store i64 %1, ptr %6, align 8
  store i64 %2, ptr %7, align 8
  store i8 %3, ptr %8, align 1
  %12 = load ptr, ptr %5, align 8
  %13 = getelementptr inbounds %struct.T1_BuilderRec_, ptr %12, i32 0, i32 5
  %14 = load ptr, ptr %13, align 8
  store ptr %14, ptr %9, align 8
  %15 = load ptr, ptr %5, align 8
  %16 = getelementptr inbounds %struct.T1_BuilderRec_, ptr %15, i32 0, i32 12
  %17 = load i8, ptr %16, align 4
  %18 = icmp ne i8 %17, 0
  br i1 %18, label %19, label %54

19:                                               ; preds = %4
  %20 = load ptr, ptr %9, align 8
  %21 = getelementptr inbounds %struct.FT_Outline_, ptr %20, i32 0, i32 2
  %22 = load ptr, ptr %21, align 8
  %23 = load ptr, ptr %9, align 8
  %24 = getelementptr inbounds %struct.FT_Outline_, ptr %23, i32 0, i32 1
  %25 = load i16, ptr %24, align 2
  %26 = zext i16 %25 to i32
  %27 = sext i32 %26 to i64
  %28 = getelementptr inbounds %struct.FT_Vector_, ptr %22, i64 %27
  store ptr %28, ptr %10, align 8
  %29 = load ptr, ptr %9, align 8
  %30 = getelementptr inbounds %struct.FT_Outline_, ptr %29, i32 0, i32 3
  %31 = load ptr, ptr %30, align 8
  %32 = load ptr, ptr %9, align 8
  %33 = getelementptr inbounds %struct.FT_Outline_, ptr %32, i32 0, i32 1
  %34 = load i16, ptr %33, align 2
  %35 = zext i16 %34 to i32
  %36 = sext i32 %35 to i64
  %37 = getelementptr inbounds i8, ptr %31, i64 %36
  store ptr %37, ptr %11, align 8
  %38 = load i64, ptr %6, align 8
  %39 = call i64 @FT_RoundFix(i64 noundef %38)
  %40 = ashr i64 %39, 16
  %41 = load ptr, ptr %10, align 8
  %42 = getelementptr inbounds %struct.FT_Vector_, ptr %41, i32 0, i32 0
  store i64 %40, ptr %42, align 8
  %43 = load i64, ptr %7, align 8
  %44 = call i64 @FT_RoundFix(i64 noundef %43)
  %45 = ashr i64 %44, 16
  %46 = load ptr, ptr %10, align 8
  %47 = getelementptr inbounds %struct.FT_Vector_, ptr %46, i32 0, i32 1
  store i64 %45, ptr %47, align 8
  %48 = load i8, ptr %8, align 1
  %49 = zext i8 %48 to i32
  %50 = icmp ne i32 %49, 0
  %51 = select i1 %50, i32 1, i32 2
  %52 = trunc i32 %51 to i8
  %53 = load ptr, ptr %11, align 8
  store i8 %52, ptr %53, align 1
  br label %54

54:                                               ; preds = %19, %4
  %55 = load ptr, ptr %9, align 8
  %56 = getelementptr inbounds %struct.FT_Outline_, ptr %55, i32 0, i32 1
  %57 = load i16, ptr %56, align 2
  %58 = add i16 %57, 1
  store i16 %58, ptr %56, align 2
  ret void
}

; Function Attrs: nounwind uwtable
define internal i32 @t1_builder_check_points(ptr noundef %0, i32 noundef %1) #0 {
  %3 = alloca ptr, align 8
  %4 = alloca i32, align 4
  store ptr %0, ptr %3, align 8
  store i32 %1, ptr %4, align 4
  %5 = load i32, ptr %4, align 4
  %6 = icmp eq i32 %5, 0
  br i1 %6, label %33, label %7

7:                                                ; preds = %2
  %8 = load ptr, ptr %3, align 8
  %9 = getelementptr inbounds %struct.T1_BuilderRec_, ptr %8, i32 0, i32 3
  %10 = load ptr, ptr %9, align 8
  %11 = getelementptr inbounds %struct.FT_GlyphLoaderRec_, ptr %10, i32 0, i32 5
  %12 = getelementptr inbounds %struct.FT_GlyphLoadRec_, ptr %11, i32 0, i32 0
  %13 = getelementptr inbounds %struct.FT_Outline_, ptr %12, i32 0, i32 1
  %14 = load i16, ptr %13, align 2
  %15 = zext i16 %14 to i32
  %16 = load ptr, ptr %3, align 8
  %17 = getelementptr inbounds %struct.T1_BuilderRec_, ptr %16, i32 0, i32 3
  %18 = load ptr, ptr %17, align 8
  %19 = getelementptr inbounds %struct.FT_GlyphLoaderRec_, ptr %18, i32 0, i32 6
  %20 = getelementptr inbounds %struct.FT_GlyphLoadRec_, ptr %19, i32 0, i32 0
  %21 = getelementptr inbounds %struct.FT_Outline_, ptr %20, i32 0, i32 1
  %22 = load i16, ptr %21, align 2
  %23 = zext i16 %22 to i32
  %24 = add i32 %15, %23
  %25 = load i32, ptr %4, align 4
  %26 = add i32 %24, %25
  %27 = load ptr, ptr %3, align 8
  %28 = getelementptr inbounds %struct.T1_BuilderRec_, ptr %27, i32 0, i32 3
  %29 = load ptr, ptr %28, align 8
  %30 = getelementptr inbounds %struct.FT_GlyphLoaderRec_, ptr %29, i32 0, i32 1
  %31 = load i32, ptr %30, align 8
  %32 = icmp ule i32 %26, %31
  br i1 %32, label %33, label %34

33:                                               ; preds = %7, %2
  br label %40

34:                                               ; preds = %7
  %35 = load ptr, ptr %3, align 8
  %36 = getelementptr inbounds %struct.T1_BuilderRec_, ptr %35, i32 0, i32 3
  %37 = load ptr, ptr %36, align 8
  %38 = load i32, ptr %4, align 4
  %39 = call i32 @FT_GlyphLoader_CheckPoints(ptr noundef %37, i32 noundef %38, i32 noundef 0)
  br label %40

40:                                               ; preds = %34, %33
  %41 = phi i32 [ 0, %33 ], [ %39, %34 ]
  ret i32 %41
}

; Function Attrs: nounwind uwtable
define internal i32 @t1_builder_add_point1(ptr noundef %0, i64 noundef %1, i64 noundef %2) #0 {
  %4 = alloca ptr, align 8
  %5 = alloca i64, align 8
  %6 = alloca i64, align 8
  %7 = alloca i32, align 4
  store ptr %0, ptr %4, align 8
  store i64 %1, ptr %5, align 8
  store i64 %2, ptr %6, align 8
  %8 = load ptr, ptr %4, align 8
  %9 = call i32 @t1_builder_check_points(ptr noundef %8, i32 noundef 1)
  store i32 %9, ptr %7, align 4
  %10 = load i32, ptr %7, align 4
  %11 = icmp ne i32 %10, 0
  br i1 %11, label %16, label %12

12:                                               ; preds = %3
  %13 = load ptr, ptr %4, align 8
  %14 = load i64, ptr %5, align 8
  %15 = load i64, ptr %6, align 8
  call void @t1_builder_add_point(ptr noundef %13, i64 noundef %14, i64 noundef %15, i8 noundef zeroext 1)
  br label %16

16:                                               ; preds = %12, %3
  %17 = load i32, ptr %7, align 4
  ret i32 %17
}