; Function Attrs: nounwind uwtable
define internal i32 @t1_builder_add_point1(ptr noundef readonly captures(none) %0, i64 noundef %1, i64 noundef %2) #0 {
  %4 = getelementptr inbounds nuw i8, ptr %0, i64 24
  %5 = load ptr, ptr %4, align 8
  %6 = getelementptr inbounds nuw i8, ptr %5, i64 26
  %7 = load i16, ptr %6, align 2
  %8 = zext i16 %7 to i32
  %9 = getelementptr inbounds nuw i8, ptr %5, i64 98
  %10 = load i16, ptr %9, align 2
  %11 = zext i16 %10 to i32
  %12 = add nuw nsw i32 %8, 1
  %13 = add nuw nsw i32 %12, %11
  %14 = getelementptr inbounds nuw i8, ptr %5, i64 8
  %15 = load i32, ptr %14, align 8
  %.not.i = icmp ugt i32 %13, %15
  br i1 %.not.i, label %t1_builder_check_points.exit, label %t1_builder_check_points.exit.thread

t1_builder_check_points.exit:                     ; preds = %3
  %16 = tail call i32 @FT_GlyphLoader_CheckPoints(ptr noundef nonnull %5, i32 noundef 1, i32 noundef 0) #20
  %.not = icmp eq i32 %16, 0
  br i1 %.not, label %t1_builder_check_points.exit.thread, label %39

t1_builder_check_points.exit.thread:              ; preds = %3, %t1_builder_check_points.exit
  %17 = getelementptr inbounds nuw i8, ptr %0, i64 40
  %18 = load ptr, ptr %17, align 8
  %19 = getelementptr inbounds nuw i8, ptr %0, i64 132
  %20 = load i8, ptr %19, align 4
  %.not.i5 = icmp eq i8 %20, 0
  br i1 %.not.i5, label %t1_builder_add_point.exit, label %21

21:                                               ; preds = %t1_builder_check_points.exit.thread
  %22 = getelementptr inbounds nuw i8, ptr %18, i64 8
  %23 = load ptr, ptr %22, align 8
  %24 = getelementptr inbounds nuw i8, ptr %18, i64 2
  %25 = load i16, ptr %24, align 2
  %26 = zext i16 %25 to i64
  %27 = getelementptr inbounds nuw %struct.FT_Vector_, ptr %23, i64 %26
  %28 = getelementptr inbounds nuw i8, ptr %18, i64 16
  %29 = load ptr, ptr %28, align 8
  %30 = getelementptr inbounds nuw i8, ptr %29, i64 %26
  %31 = tail call i64 @FT_RoundFix(i64 noundef %1) #20
  %32 = ashr i64 %31, 16
  store i64 %32, ptr %27, align 8
  %33 = tail call i64 @FT_RoundFix(i64 noundef %2) #20
  %34 = ashr i64 %33, 16
  %35 = getelementptr inbounds nuw i8, ptr %27, i64 8
  store i64 %34, ptr %35, align 8
  store i8 1, ptr %30, align 1
  br label %t1_builder_add_point.exit

t1_builder_add_point.exit:                        ; preds = %t1_builder_check_points.exit.thread, %21
  %36 = getelementptr inbounds nuw i8, ptr %18, i64 2
  %37 = load i16, ptr %36, align 2
  %38 = add i16 %37, 1
  store i16 %38, ptr %36, align 2
  br label %39

39:                                               ; preds = %t1_builder_add_point.exit, %t1_builder_check_points.exit
  %40 = phi i32 [ 0, %t1_builder_add_point.exit ], [ %16, %t1_builder_check_points.exit ]
  ret i32 %40
}